; Function Attrs: nounwind uwtable
define noalias noundef ptr @Wla_ManCollectNodes(ptr noundef readonly captures(none) %0, i32 noundef %1) local_unnamed_addr #1 {
  %3 = tail call noalias dereferenceable_or_null(16) ptr @malloc(i64 noundef 16) #27
  %4 = getelementptr inbounds nuw i8, ptr %3, i64 4
  store i32 0, ptr %4, align 4, !tbaa !11
  store i32 100, ptr %3, align 8, !tbaa !41
  %5 = tail call noalias dereferenceable_or_null(400) ptr @malloc(i64 noundef 400) #27
  %6 = getelementptr inbounds nuw i8, ptr %3, i64 8
  store ptr %5, ptr %6, align 8, !tbaa !14
  %7 = getelementptr inbounds nuw i8, ptr %0, i64 32
  %8 = load ptr, ptr %7, align 8, !tbaa !67
  %9 = getelementptr i8, ptr %8, i64 4
  %.val29 = load i32, ptr %9, align 4, !tbaa !11
  %10 = icmp sgt i32 %.val29, 0
  br i1 %10, label %.lr.ph, label %.critedge

.lr.ph:                                           ; preds = %2
  %.not = icmp eq i32 %1, 0
  %11 = getelementptr inbounds nuw i8, ptr %0, i64 56
  br i1 %.not, label %.lr.ph.split.us, label %.critedge18

.lr.ph.split.us:                                  ; preds = %.lr.ph, %48
  %12 = phi ptr [ %49, %48 ], [ %8, %.lr.ph ]
  %13 = phi ptr [ %.pre.i.us40, %48 ], [ %5, %.lr.ph ]
  %indvars.iv33 = phi i64 [ %indvars.iv.next34, %48 ], [ 0, %.lr.ph ]
  %14 = getelementptr i8, ptr %12, i64 8
  %.val19.us = load ptr, ptr %14, align 8, !tbaa !14
  %15 = getelementptr inbounds nuw i32, ptr %.val19.us, i64 %indvars.iv33
  %16 = load i32, ptr %15, align 4, !tbaa !15
  %17 = load ptr, ptr %11, align 8, !tbaa !76
  %18 = getelementptr i8, ptr %17, i64 8
  %.val21.us = load ptr, ptr %18, align 8, !tbaa !37
  %19 = ashr i32 %16, 5
  %20 = sext i32 %19 to i64
  %21 = getelementptr inbounds i32, ptr %.val21.us, i64 %20
  %22 = load i32, ptr %21, align 4, !tbaa !15
  %23 = and i32 %16, 31
  %24 = shl nuw i32 1, %23
  %25 = and i32 %22, %24
  %.not15.us = icmp eq i32 %25, 0
  br i1 %.not15.us, label %48, label %26

26:                                               ; preds = %.lr.ph.split.us
  %27 = load i32, ptr %4, align 4, !tbaa !11
  %28 = load i32, ptr %3, align 8, !tbaa !41
  %29 = icmp eq i32 %27, %28
  br i1 %29, label %30, label %Vec_IntPush.exit.us

30:                                               ; preds = %26
  %31 = icmp slt i32 %27, 16
  br i1 %31, label %40, label %32

32:                                               ; preds = %30
  %33 = shl nuw nsw i32 %27, 1
  %.not9.i9.i.us = icmp eq ptr %13, null
  %34 = zext nneg i32 %33 to i64
  %35 = shl nuw nsw i64 %34, 2
  br i1 %.not9.i9.i.us, label %38, label %36

36:                                               ; preds = %32
  %37 = tail call ptr @realloc(ptr noundef nonnull %13, i64 noundef %35) #26
  br label %Vec_IntPush.exit.us.sink.split

38:                                               ; preds = %32
  %39 = tail call noalias ptr @malloc(i64 noundef %35) #27
  br label %Vec_IntPush.exit.us.sink.split

40:                                               ; preds = %30
  %.not9.i.i.us = icmp eq ptr %13, null
  br i1 %.not9.i.i.us, label %43, label %41

41:                                               ; preds = %40
  %42 = tail call dereferenceable_or_null(64) ptr @realloc(ptr noundef nonnull %13, i64 noundef 64) #26
  br label %Vec_IntPush.exit.us.sink.split

43:                                               ; preds = %40
  %44 = tail call noalias dereferenceable_or_null(64) ptr @malloc(i64 noundef 64) #27
  br label %Vec_IntPush.exit.us.sink.split

Vec_IntPush.exit.us.sink.split:                   ; preds = %41, %43, %36, %38
  %.sink44 = phi ptr [ %37, %36 ], [ %39, %38 ], [ %42, %41 ], [ %44, %43 ]
  %.sink = phi i32 [ %33, %36 ], [ %33, %38 ], [ 16, %41 ], [ 16, %43 ]
  store ptr %.sink44, ptr %6, align 8, !tbaa !14
  store i32 %.sink, ptr %3, align 8, !tbaa !41
  br label %Vec_IntPush.exit.us

Vec_IntPush.exit.us:                              ; preds = %Vec_IntPush.exit.us.sink.split, %26
  %.pre.i.us41 = phi ptr [ %13, %26 ], [ %.sink44, %Vec_IntPush.exit.us.sink.split ]
  %45 = add nsw i32 %27, 1
  store i32 %45, ptr %4, align 4, !tbaa !11
  %46 = sext i32 %27 to i64
  %47 = getelementptr inbounds i32, ptr %.pre.i.us41, i64 %46
  store i32 %16, ptr %47, align 4, !tbaa !15
  %.pre42 = load ptr, ptr %7, align 8, !tbaa !67
  br label %48

48:                                               ; preds = %Vec_IntPush.exit.us, %.lr.ph.split.us
  %49 = phi ptr [ %.pre42, %Vec_IntPush.exit.us ], [ %12, %.lr.ph.split.us ]
  %.pre.i.us40 = phi ptr [ %.pre.i.us41, %Vec_IntPush.exit.us ], [ %13, %.lr.ph.split.us ]
  %indvars.iv.next34 = add nuw nsw i64 %indvars.iv33, 1
  %50 = getelementptr i8, ptr %49, i64 4
  %.val.us = load i32, ptr %50, align 4, !tbaa !11
  %51 = sext i32 %.val.us to i64
  %52 = icmp slt i64 %indvars.iv.next34, %51
  br i1 %52, label %.lr.ph.split.us, label %.critedge, !llvm.loop !77

.critedge18:                                      ; preds = %.lr.ph, %89
  %53 = phi ptr [ %90, %89 ], [ %8, %.lr.ph ]
  %54 = phi ptr [ %.pre.i2437, %89 ], [ %5, %.lr.ph ]
  %indvars.iv = phi i64 [ %indvars.iv.next, %89 ], [ 0, %.lr.ph ]
  %55 = getelementptr i8, ptr %53, i64 8
  %.val19 = load ptr, ptr %55, align 8, !tbaa !14
  %56 = getelementptr inbounds nuw i32, ptr %.val19, i64 %indvars.iv
  %57 = load i32, ptr %56, align 4, !tbaa !15
  %58 = load ptr, ptr %11, align 8, !tbaa !76
  %59 = getelementptr i8, ptr %58, i64 8
  %.val20 = load ptr, ptr %59, align 8, !tbaa !37
  %60 = ashr i32 %57, 5
  %61 = sext i32 %60 to i64
  %62 = getelementptr inbounds i32, ptr %.val20, i64 %61
  %63 = load i32, ptr %62, align 4, !tbaa !15
  %64 = and i32 %57, 31
  %65 = shl nuw i32 1, %64
  %66 = and i32 %63, %65
  %.not16 = icmp eq i32 %66, 0
  br i1 %.not16, label %67, label %89

67:                                               ; preds = %.critedge18
  %68 = load i32, ptr %4, align 4, !tbaa !11
  %69 = load i32, ptr %3, align 8, !tbaa !41
  %70 = icmp eq i32 %68, %69
  br i1 %70, label %71, label %Vec_IntPush.exit28

71:                                               ; preds = %67
  %72 = icmp slt i32 %68, 16
  br i1 %72, label %73, label %78

73:                                               ; preds = %71
  %.not9.i.i26 = icmp eq ptr %54, null
  br i1 %.not9.i.i26, label %76, label %74

74:                                               ; preds = %73
  %75 = tail call dereferenceable_or_null(64) ptr @realloc(ptr noundef nonnull %54, i64 noundef 64) #26
  br label %Vec_IntPush.exit28.sink.split

76:                                               ; preds = %73
  %77 = tail call noalias dereferenceable_or_null(64) ptr @malloc(i64 noundef 64) #27
  br label %Vec_IntPush.exit28.sink.split

78:                                               ; preds = %71
  %79 = shl nuw nsw i32 %68, 1
  %.not9.i9.i25 = icmp eq ptr %54, null
  %80 = zext nneg i32 %79 to i64
  %81 = shl nuw nsw i64 %80, 2
  br i1 %.not9.i9.i25, label %84, label %82

82:                                               ; preds = %78
  %83 = tail call ptr @realloc(ptr noundef nonnull %54, i64 noundef %81) #26
  br label %Vec_IntPush.exit28.sink.split

84:                                               ; preds = %78
  %85 = tail call noalias ptr @malloc(i64 noundef %81) #27
  br label %Vec_IntPush.exit28.sink.split

Vec_IntPush.exit28.sink.split:                    ; preds = %82, %84, %74, %76
  %.sink46 = phi ptr [ %75, %74 ], [ %77, %76 ], [ %83, %82 ], [ %85, %84 ]
  %.sink45 = phi i32 [ 16, %74 ], [ 16, %76 ], [ %79, %82 ], [ %79, %84 ]
  store ptr %.sink46, ptr %6, align 8, !tbaa !14
  store i32 %.sink45, ptr %3, align 8, !tbaa !41
  br label %Vec_IntPush.exit28

Vec_IntPush.exit28:                               ; preds = %Vec_IntPush.exit28.sink.split, %67
  %.pre.i2438 = phi ptr [ %54, %67 ], [ %.sink46, %Vec_IntPush.exit28.sink.split ]
  %86 = add nsw i32 %68, 1
  store i32 %86, ptr %4, align 4, !tbaa !11
  %87 = sext i32 %68 to i64
  %88 = getelementptr inbounds i32, ptr %.pre.i2438, i64 %87
  store i32 %57, ptr %88, align 4, !tbaa !15
  %.pre = load ptr, ptr %7, align 8, !tbaa !67
  br label %89

89:                                               ; preds = %.critedge18, %Vec_IntPush.exit28
  %90 = phi ptr [ %53, %.critedge18 ], [ %.pre, %Vec_IntPush.exit28 ]
  %.pre.i2437 = phi ptr [ %54, %.critedge18 ], [ %.pre.i2438, %Vec_IntPush.exit28 ]
  %indvars.iv.next = add nuw nsw i64 %indvars.iv, 1
  %91 = getelementptr i8, ptr %90, i64 4
  %.val = load i32, ptr %91, align 4, !tbaa !11
  %92 = sext i32 %.val to i64
  %93 = icmp slt i64 %indvars.iv.next, %92
  br i1 %93, label %.critedge18, label %.critedge, !llvm.loop !77

.critedge:                                        ; preds = %89, %48, %2
  ret ptr %3
}